; ModuleID = '42/592.c'
source_filename = "42/592.c"
target datalayout = "e-m:e-p270:32:32-p271:32:32-p272:64:64-i64:64-f80:128-n8:16:32:64-S128"
target triple = "x86_64-pc-linux-gnu"

@.str = private unnamed_addr constant [3 x i8] c"%d\00", align 1
@.str.1 = private unnamed_addr constant [4 x i8] c"%d \00", align 1

; Function Attrs: noinline nounwind uwtable
define dso_local void @main() #0 {
  %1 = alloca i32, align 4
  %2 = alloca i32*, align 8
  %3 = alloca [100000 x i32], align 16
  %4 = alloca i32, align 4
  %5 = alloca i32, align 4
  store i32 0, i32* %5, align 4
  %6 = call i32 (i8*, ...) @__isoc99_scanf(i8* getelementptr inbounds ([3 x i8], [3 x i8]* @.str, i64 0, i64 0), i32* %1)
  %7 = getelementptr inbounds [100000 x i32], [100000 x i32]* %3, i64 0, i64 0
  store i32* %7, i32** %2, align 8
  br label %8

8:                                                ; preds = %18, %0
  %9 = load i32*, i32** %2, align 8
  %10 = getelementptr inbounds [100000 x i32], [100000 x i32]* %3, i64 0, i64 0
  %11 = load i32, i32* %1, align 4
  %12 = sext i32 %11 to i64
  %13 = getelementptr inbounds i32, i32* %10, i64 %12
  %14 = icmp ult i32* %9, %13
  br i1 %14, label %15, label %21

15:                                               ; preds = %8
  %16 = load i32*, i32** %2, align 8
  %17 = call i32 (i8*, ...) @__isoc99_scanf(i8* getelementptr inbounds ([3 x i8], [3 x i8]* @.str, i64 0, i64 0), i32* %16)
  br label %18

18:                                               ; preds = %15
  %19 = load i32*, i32** %2, align 8
  %20 = getelementptr inbounds i32, i32* %19, i32 1
  store i32* %20, i32** %2, align 8
  br label %8

21:                                               ; preds = %8
  %22 = call i32 (i8*, ...) @__isoc99_scanf(i8* getelementptr inbounds ([3 x i8], [3 x i8]* @.str, i64 0, i64 0), i32* %4)
  %23 = getelementptr inbounds [100000 x i32], [100000 x i32]* %3, i64 0, i64 0
  store i32* %23, i32** %2, align 8
  br label %24

24:                                               ; preds = %54, %21
  %25 = load i32*, i32** %2, align 8
  %26 = getelementptr inbounds [100000 x i32], [100000 x i32]* %3, i64 0, i64 0
  %27 = load i32, i32* %1, align 4
  %28 = sext i32 %27 to i64
  %29 = getelementptr inbounds i32, i32* %26, i64 %28
  %30 = icmp ult i32* %25, %29
  br i1 %30, label %31, label %57

31:                                               ; preds = %24
  %32 = load i32*, i32** %2, align 8
  %33 = load i32, i32* %32, align 4
  %34 = load i32, i32* %4, align 4
  %35 = icmp eq i32 %33, %34
  br i1 %35, label %36, label %39

36:                                               ; preds = %31
  %37 = load i32, i32* %5, align 4
  %38 = add nsw i32 %37, 1
  store i32 %38, i32* %5, align 4
  br label %53

39:                                               ; preds = %31
  %40 = load i32*, i32** %2, align 8
  %41 = load i32, i32* %40, align 4
  %42 = load i32, i32* %4, align 4
  %43 = icmp ne i32 %41, %42
  br i1 %43, label %44, label %52

44:                                               ; preds = %39
  %45 = load i32*, i32** %2, align 8
  %46 = load i32, i32* %45, align 4
  %47 = load i32*, i32** %2, align 8
  %48 = load i32, i32* %5, align 4
  %49 = sext i32 %48 to i64
  %50 = sub i64 0, %49
  %51 = getelementptr inbounds i32, i32* %47, i64 %50
  store i32 %46, i32* %51, align 4
  br label %52

52:                                               ; preds = %44, %39
  br label %53

53:                                               ; preds = %52, %36
  br label %54

54:                                               ; preds = %53
  %55 = load i32*, i32** %2, align 8
  %56 = getelementptr inbounds i32, i32* %55, i32 1
  store i32* %56, i32** %2, align 8
  br label %24

57:                                               ; preds = %24
  %58 = getelementptr inbounds [100000 x i32], [100000 x i32]* %3, i64 0, i64 0
  store i32* %58, i32** %2, align 8
  br label %59

59:                                               ; preds = %75, %57
  %60 = load i32*, i32** %2, align 8
  %61 = getelementptr inbounds [100000 x i32], [100000 x i32]* %3, i64 0, i64 0
  %62 = load i32, i32* %1, align 4
  %63 = sext i32 %62 to i64
  %64 = getelementptr inbounds i32, i32* %61, i64 %63
  %65 = load i32, i32* %5, align 4
  %66 = sext i32 %65 to i64
  %67 = sub i64 0, %66
  %68 = getelementptr inbounds i32, i32* %64, i64 %67
  %69 = getelementptr inbounds i32, i32* %68, i64 -1
  %70 = icmp ult i32* %60, %69
  br i1 %70, label %71, label %78

71:                                               ; preds = %59
  %72 = load i32*, i32** %2, align 8
  %73 = load i32, i32* %72, align 4
  %74 = call i32 (i8*, ...) @printf(i8* getelementptr inbounds ([4 x i8], [4 x i8]* @.str.1, i64 0, i64 0), i32 %73)
  br label %75

75:                                               ; preds = %71
  %76 = load i32*, i32** %2, align 8
  %77 = getelementptr inbounds i32, i32* %76, i32 1
  store i32* %77, i32** %2, align 8
  br label %59

78:                                               ; preds = %59
  %79 = getelementptr inbounds [100000 x i32], [100000 x i32]* %3, i64 0, i64 0
  %80 = load i32, i32* %1, align 4
  %81 = sext i32 %80 to i64
  %82 = getelementptr inbounds i32, i32* %79, i64 %81
  %83 = load i32, i32* %5, align 4
  %84 = sext i32 %83 to i64
  %85 = sub i64 0, %84
  %86 = getelementptr inbounds i32, i32* %82, i64 %85
  %87 = getelementptr inbounds i32, i32* %86, i64 -1
  %88 = load i32, i32* %87, align 4
  %89 = call i32 (i8*, ...) @printf(i8* getelementptr inbounds ([3 x i8], [3 x i8]* @.str, i64 0, i64 0), i32 %88)
  ret void
}

declare dso_local i32 @__isoc99_scanf(i8*, ...) #1

declare dso_local i32 @printf(i8*, ...) #1


!llvm.module.flags = !{!0}
!llvm.ident = !{!1}

!0 = !{i32 1, !"wchar_size", i32 4}
!1 = !{!"clang version 10.0.0-4ubuntu1 "}
